target datalayout = "e-m:e-p270:32:32-p271:32:32-p272:64:64-i64:64-i128:128-f80:128-n8:16:32:64-S128"
target triple = "x86_64-pc-linux-gnu"

%struct._fvalue_t = type { ptr, %union.anon.1 }
%union.anon.1 = type { %struct._protocol_value_t }
%struct._protocol_value_t = type { ptr, i32, ptr, i8 }

@.str.29 = private unnamed_addr constant [34 x i8] c"\22%s\22 is not a valid RELATIVE-OID.\00", align 1

; Function Attrs: null_pointer_is_valid sspstrong uwtable
define internal void @bytes_fvalue_free(ptr noundef %0) #0 {
  %2 = alloca ptr, align 8
  store ptr %0, ptr %2, align 8
  %3 = load ptr, ptr %2, align 8
  %4 = getelementptr inbounds nuw %struct._fvalue_t, ptr %3, i32 0, i32 1
  %5 = load ptr, ptr %4, align 8
  %6 = icmp ne ptr %5, null
  br i1 %6, label %7, label %13

7:                                                ; preds = %1
  %8 = load ptr, ptr %2, align 8
  %9 = getelementptr inbounds nuw %struct._fvalue_t, ptr %8, i32 0, i32 1
  %10 = load ptr, ptr %9, align 8
  call void @g_bytes_unref(ptr noundef %10)
  %11 = load ptr, ptr %2, align 8
  %12 = getelementptr inbounds nuw %struct._fvalue_t, ptr %11, i32 0, i32 1
  store ptr null, ptr %12, align 8
  br label %13

13:                                               ; preds = %7, %1
  ret void
}

; Function Attrs: null_pointer_is_valid sspstrong uwtable
define internal zeroext i1 @rel_oid_from_literal(ptr noundef %0, ptr noundef %1, i1 noundef zeroext %2, ptr noundef %3) #0 {
  %5 = alloca i1, align 1
  %6 = alloca ptr, align 8
  %7 = alloca ptr, align 8
  %8 = alloca i8, align 1
  %9 = alloca ptr, align 8
  %10 = alloca ptr, align 8
  %11 = alloca i8, align 1
  %12 = alloca i32, align 4
  store ptr %0, ptr %6, align 8
  store ptr %1, ptr %7, align 8
  %13 = zext i1 %2 to i8
  store i8 %13, ptr %8, align 1
  store ptr %3, ptr %9, align 8
  call void @llvm.lifetime.start.p0(i64 8, ptr %10) #9
  call void @llvm.lifetime.start.p0(i64 1, ptr %11) #9
  %14 = call ptr @g_byte_array_new()
  store ptr %14, ptr %10, align 8
  %15 = load ptr, ptr %7, align 8
  %16 = load ptr, ptr %10, align 8
  %17 = call zeroext i1 @rel_oid_str_to_bytes(ptr noundef %15, ptr noundef %16, i1 noundef zeroext false)
  %18 = zext i1 %17 to i8
  store i8 %18, ptr %11, align 1
  %19 = load i8, ptr %11, align 1, !range !6, !noundef !7
  %20 = trunc i8 %19 to i1
  br i1 %20, label %31, label %21

21:                                               ; preds = %4
  %22 = load ptr, ptr %9, align 8
  %23 = icmp ne ptr %22, null
  br i1 %23, label %24, label %28

24:                                               ; preds = %21
  %25 = load ptr, ptr %7, align 8
  %26 = call noalias ptr (ptr, ptr, ...) @wmem_strdup_printf(ptr noundef null, ptr noundef @.str.29, ptr noundef %25)
  %27 = load ptr, ptr %9, align 8
  store ptr %26, ptr %27, align 8
  br label %28

28:                                               ; preds = %24, %21
  %29 = load ptr, ptr %10, align 8
  %30 = call ptr @g_byte_array_free(ptr noundef %29, i32 noundef 1)
  store i1 false, ptr %5, align 1
  store i32 1, ptr %12, align 4
  br label %37

31:                                               ; preds = %4
  %32 = load ptr, ptr %6, align 8
  call void @bytes_fvalue_free(ptr noundef %32)
  %33 = load ptr, ptr %10, align 8
  %34 = call ptr @g_byte_array_free_to_bytes(ptr noundef %33)
  %35 = load ptr, ptr %6, align 8
  %36 = getelementptr inbounds nuw %struct._fvalue_t, ptr %35, i32 0, i32 1
  store ptr %34, ptr %36, align 8
  store i1 true, ptr %5, align 1
  store i32 1, ptr %12, align 4
  br label %37

37:                                               ; preds = %31, %28
  call void @llvm.lifetime.end.p0(i64 1, ptr %11) #9
  call void @llvm.lifetime.end.p0(i64 8, ptr %10) #9
  %38 = load i1, ptr %5, align 1
  ret i1 %38
}