; Function Attrs: null_pointer_is_valid sspstrong uwtable
define internal noundef zeroext i1 @rel_oid_from_literal(ptr noundef captures(none) %0, ptr noundef %1, i1 zeroext %2, ptr noundef writeonly captures(address_is_null) %3) #0 {
  %5 = tail call ptr @g_byte_array_new()
  %6 = tail call zeroext i1 @rel_oid_str_to_bytes(ptr noundef %1, ptr noundef %5, i1 noundef zeroext false)
  br i1 %6, label %12, label %7

7:                                                ; preds = %4
  %.not = icmp eq ptr %3, null
  br i1 %.not, label %10, label %8

8:                                                ; preds = %7
  %9 = tail call noalias ptr (ptr, ptr, ...) @wmem_strdup_printf(ptr noundef null, ptr noundef nonnull @.str.29, ptr noundef %1)
  store ptr %9, ptr %3, align 8
  br label %10

10:                                               ; preds = %8, %7
  %11 = tail call ptr @g_byte_array_free(ptr noundef %5, i32 noundef 1)
  br label %17

12:                                               ; preds = %4
  %13 = getelementptr inbounds nuw i8, ptr %0, i64 8
  %14 = load ptr, ptr %13, align 8
  %.not.i = icmp eq ptr %14, null
  br i1 %.not.i, label %bytes_fvalue_free.exit, label %15

15:                                               ; preds = %12
  tail call void @g_bytes_unref(ptr noundef nonnull %14)
  store ptr null, ptr %13, align 8
  br label %bytes_fvalue_free.exit

bytes_fvalue_free.exit:                           ; preds = %12, %15
  %16 = tail call ptr @g_byte_array_free_to_bytes(ptr noundef %5)
  store ptr %16, ptr %13, align 8
  br label %17

17:                                               ; preds = %bytes_fvalue_free.exit, %10
  ret i1 %6
}